; ModuleID = '29/1322.c'
source_filename = "29/1322.c"
target datalayout = "e-m:e-p270:32:32-p271:32:32-p272:64:64-i64:64-f80:128-n8:16:32:64-S128"
target triple = "x86_64-pc-linux-gnu"

@.str = private unnamed_addr constant [3 x i8] c"%d\00", align 1
@.str.1 = private unnamed_addr constant [7 x i8] c"%.3lf\0A\00", align 1

; Function Attrs: noinline nounwind uwtable
define dso_local i32 @main() #0 {
  %1 = alloca i32, align 4
  %2 = alloca [100 x double], align 16
  %3 = alloca double, align 8
  %4 = alloca double, align 8
  %5 = alloca double, align 8
  %6 = alloca double, align 8
  %7 = alloca i32, align 4
  %8 = alloca [100 x i32], align 16
  %9 = alloca i32, align 4
  %10 = alloca i32, align 4
  %11 = alloca i32, align 4
  store i32 0, i32* %1, align 4
  %12 = call i32 (i8*, ...) @__isoc99_scanf(i8* getelementptr inbounds ([3 x i8], [3 x i8]* @.str, i64 0, i64 0), i32* %7)
  store i32 0, i32* %9, align 4
  br label %13

13:                                               ; preds = %22, %0
  %14 = load i32, i32* %9, align 4
  %15 = load i32, i32* %7, align 4
  %16 = icmp slt i32 %14, %15
  br i1 %16, label %17, label %25

17:                                               ; preds = %13
  %18 = load i32, i32* %9, align 4
  %19 = sext i32 %18 to i64
  %20 = getelementptr inbounds [100 x i32], [100 x i32]* %8, i64 0, i64 %19
  %21 = call i32 (i8*, ...) @__isoc99_scanf(i8* getelementptr inbounds ([3 x i8], [3 x i8]* @.str, i64 0, i64 0), i32* %20)
  br label %22

22:                                               ; preds = %17
  %23 = load i32, i32* %9, align 4
  %24 = add nsw i32 %23, 1
  store i32 %24, i32* %9, align 4
  br label %13

25:                                               ; preds = %13
  store i32 0, i32* %9, align 4
  br label %26

26:                                               ; preds = %75, %25
  %27 = load i32, i32* %9, align 4
  %28 = load i32, i32* %7, align 4
  %29 = icmp slt i32 %27, %28
  br i1 %29, label %30, label %78

30:                                               ; preds = %26
  store double 2.000000e+00, double* %3, align 8
  store double 1.000000e+00, double* %4, align 8
  store double 2.000000e+00, double* %6, align 8
  %31 = load i32, i32* %9, align 4
  %32 = sext i32 %31 to i64
  %33 = getelementptr inbounds [100 x i32], [100 x i32]* %8, i64 0, i64 %32
  %34 = load i32, i32* %33, align 4
  %35 = icmp eq i32 %34, 1
  br i1 %35, label %36, label %41

36:                                               ; preds = %30
  %37 = load double, double* %6, align 8
  %38 = load i32, i32* %9, align 4
  %39 = sext i32 %38 to i64
  %40 = getelementptr inbounds [100 x double], [100 x double]* %2, i64 0, i64 %39
  store double %37, double* %40, align 8
  br label %41

41:                                               ; preds = %36, %30
  %42 = load i32, i32* %9, align 4
  %43 = sext i32 %42 to i64
  %44 = getelementptr inbounds [100 x i32], [100 x i32]* %8, i64 0, i64 %43
  %45 = load i32, i32* %44, align 4
  %46 = icmp ne i32 %45, 1
  br i1 %46, label %47, label %74

47:                                               ; preds = %41
  store i32 1, i32* %10, align 4
  br label %48

48:                                               ; preds = %66, %47
  %49 = load i32, i32* %10, align 4
  %50 = load i32, i32* %9, align 4
  %51 = sext i32 %50 to i64
  %52 = getelementptr inbounds [100 x i32], [100 x i32]* %8, i64 0, i64 %51
  %53 = load i32, i32* %52, align 4
  %54 = icmp slt i32 %49, %53
  br i1 %54, label %55, label %69

55:                                               ; preds = %48
  %56 = load double, double* %3, align 8
  store double %56, double* %5, align 8
  %57 = load double, double* %3, align 8
  %58 = load double, double* %4, align 8
  %59 = fadd double %57, %58
  store double %59, double* %3, align 8
  %60 = load double, double* %5, align 8
  store double %60, double* %4, align 8
  %61 = load double, double* %6, align 8
  %62 = load double, double* %3, align 8
  %63 = load double, double* %4, align 8
  %64 = fdiv double %62, %63
  %65 = fadd double %61, %64
  store double %65, double* %6, align 8
  br label %66

66:                                               ; preds = %55
  %67 = load i32, i32* %10, align 4
  %68 = add nsw i32 %67, 1
  store i32 %68, i32* %10, align 4
  br label %48

69:                                               ; preds = %48
  %70 = load double, double* %6, align 8
  %71 = load i32, i32* %9, align 4
  %72 = sext i32 %71 to i64
  %73 = getelementptr inbounds [100 x double], [100 x double]* %2, i64 0, i64 %72
  store double %70, double* %73, align 8
  br label %74

74:                                               ; preds = %69, %41
  br label %75

75:                                               ; preds = %74
  %76 = load i32, i32* %9, align 4
  %77 = add nsw i32 %76, 1
  store i32 %77, i32* %9, align 4
  br label %26

78:                                               ; preds = %26
  store i32 0, i32* %11, align 4
  br label %79

79:                                               ; preds = %89, %78
  %80 = load i32, i32* %11, align 4
  %81 = load i32, i32* %7, align 4
  %82 = icmp slt i32 %80, %81
  br i1 %82, label %83, label %92

83:                                               ; preds = %79
  %84 = load i32, i32* %11, align 4
  %85 = sext i32 %84 to i64
  %86 = getelementptr inbounds [100 x double], [100 x double]* %2, i64 0, i64 %85
  %87 = load double, double* %86, align 8
  %88 = call i32 (i8*, ...) @printf(i8* getelementptr inbounds ([7 x i8], [7 x i8]* @.str.1, i64 0, i64 0), double %87)
  br label %89

89:                                               ; preds = %83
  %90 = load i32, i32* %11, align 4
  %91 = add nsw i32 %90, 1
  store i32 %91, i32* %11, align 4
  br label %79

92:                                               ; preds = %79
  ret i32 0
}

declare dso_local i32 @__isoc99_scanf(i8*, ...) #1

declare dso_local i32 @printf(i8*, ...) #1


!llvm.module.flags = !{!0}
!llvm.ident = !{!1}

!0 = !{i32 1, !"wchar_size", i32 4}
!1 = !{!"clang version 10.0.0-4ubuntu1 "}
